(dp1
Vvradredisapppr1
p2
I0
sVvradredisappaq2
p3
I0
sVvradwebsqlpr1
p4
I0
sVvradredisappaq1
p5
I0
sVvradwebpr1
p6
I0
sVvradapppr1
p7
I0
sVvradapppr2
p8
I0
sVvradwebpr2
p9
I0
sVvradredisapppr2
p10
I0
sVvradwebt2
p11
I0
sVvradappaq1
p12
I0
sVvradwebaq1
p13
I0
sVvradwebaq3
p14
I0
sVvradappaq2
p15
I0
sVvradwebaq2
p16
I0
sVvradwebpr3
p17
I0
s.